target datalayout = "e-m:e-p270:32:32-p271:32:32-p272:64:64-i64:64-i128:128-f80:128-n8:16:32:64-S128"
target triple = "x86_64-pc-linux-gnu"

%struct._zend_jit_globals = type { i8, i8, i8, i8, i32, ptr, i64, i64, i64, double, i64, i64, i64, i64, i64, i64, i64, i64, i64, i64, i64, i64, i64, i64, ptr, i8, ptr, ptr, [64 x ptr], [64 x i8], [64 x i8], i32, ptr }
%struct._zend_array = type { %struct._zend_refcounted_h, %union.anon.17, i32, %union.anon.19, i32, i32, i32, i32, i64, ptr }
%struct._zend_refcounted_h = type { i32, %union.anon.16 }
%union.anon.16 = type { i32 }
%union.anon.17 = type { i32 }
%union.anon.19 = type { ptr }
%struct._zval_struct = type { %union._zend_value, %union.anon.21, %union.anon.24 }
%union._zend_value = type { i64 }
%union.anon.21 = type { i32 }
%union.anon.24 = type { i32 }
%struct._zend_op = type { ptr, %union._znode_op, %union._znode_op, %union._znode_op, i32, i32, i8, i8, i8, i8 }
%union._znode_op = type { i32 }
%struct._ir_ctx = type { ptr, i32, i32, i32, i32, i32, i32, i32, i32, i32, i32, %struct._ir_insn, ptr, ptr, ptr, i32, i32, i32, ptr, ptr, ptr, ptr, ptr, i32, i32, i64, i32, i32, i32, i64, i32, i32, i32, i32, ptr, ptr, ptr, ptr, ptr, ptr, %union.anon.13, ptr, i32, i32, i32, i64, i32, i32, i32, ptr, ptr, ptr, ptr, %struct._ir_strtab, [61 x i32], [14 x i32] }
%struct._ir_insn = type { %struct.anon, %union.anon.5 }
%struct.anon = type { %union.anon, %union.anon.4 }
%union.anon = type { i32 }
%union.anon.4 = type { i32 }
%union.anon.5 = type { %union._ir_val }
%union._ir_val = type { double }
%union.anon.13 = type { ptr }
%struct._ir_strtab = type { ptr, i32, i32, i32, i32, ptr, i32, i32 }
%struct._zend_jit_trace_stack = type { %union.anon.14, i32 }
%union.anon.14 = type { i32 }
%struct._zend_jit_ctx = type { %struct._ir_ctx, ptr, i8, i8, i8, i32, i32, i32, i32, i32, ptr, ptr, ptr, ptr, ptr, ptr, ptr, ptr, ptr, i32, ptr, i32, %struct._zend_array, [32 x i32] }
%struct.anon.0 = type { %union.anon.1, %union.anon.3 }
%union.anon.1 = type { i16 }
%union.anon.3 = type { i16 }
%struct.anon.15 = type { i8, i8, i8, i8 }
%struct._zend_jit_trace_stack_frame = type { ptr, ptr, ptr, ptr, ptr, i32, i32, i32, i32, i32, [1 x %struct._zend_jit_trace_stack] }

@jit_globals = hidden global %struct._zend_jit_globals zeroinitializer, align 8

; Function Attrs: nounwind uwtable
define internal i32 @jit_CONST_FUNC_PROTO(ptr noundef %0, i64 noundef %1, i32 noundef %2) #0 {
  %4 = alloca ptr, align 8
  %5 = alloca ptr, align 8
  %6 = alloca i64, align 8
  %7 = alloca i32, align 4
  %8 = alloca i32, align 4
  %9 = alloca ptr, align 8
  %10 = alloca ptr, align 8
  %11 = alloca ptr, align 8
  store ptr %0, ptr %5, align 8
  store i64 %1, ptr %6, align 8
  store i32 %2, ptr %7, align 4
  %12 = load i64, ptr %6, align 8
  %13 = icmp ne i64 %12, 0
  call void @llvm.assume(i1 %13)
  %14 = load ptr, ptr %5, align 8
  %15 = getelementptr inbounds %struct._zend_jit_ctx, ptr %14, i32 0, i32 22
  %16 = load i64, ptr %6, align 8
  %17 = call ptr @zend_hash_index_lookup(ptr noundef %15, i64 noundef %16)
  store ptr %17, ptr %10, align 8
  %18 = load ptr, ptr %10, align 8
  store ptr %18, ptr %4, align 8
  %19 = load ptr, ptr %4, align 8
  %20 = getelementptr inbounds %struct._zval_struct, ptr %19, i32 0, i32 1
  %21 = load i8, ptr %20, align 8
  %22 = zext i8 %21 to i32
  %23 = icmp eq i32 %22, 4
  br i1 %23, label %24, label %59

24:                                               ; preds = %3
  %25 = load ptr, ptr %10, align 8
  %26 = getelementptr inbounds %struct._zval_struct, ptr %25, i32 0, i32 0
  %27 = load i64, ptr %26, align 8
  %28 = trunc i64 %27 to i32
  store i32 %28, ptr %8, align 4
  %29 = load ptr, ptr %5, align 8
  %30 = getelementptr inbounds %struct._zend_jit_ctx, ptr %29, i32 0, i32 0
  %31 = getelementptr inbounds %struct._ir_ctx, ptr %30, i32 0, i32 0
  %32 = load ptr, ptr %31, align 8
  %33 = load i32, ptr %8, align 4
  %34 = sext i32 %33 to i64
  %35 = getelementptr inbounds %struct._ir_insn, ptr %32, i64 %34
  %36 = getelementptr inbounds %struct._ir_insn, ptr %35, i32 0, i32 0
  %37 = getelementptr inbounds %struct.anon, ptr %36, i32 0, i32 0
  %38 = getelementptr inbounds %struct.anon.0, ptr %37, i32 0, i32 0
  %39 = load i16, ptr %38, align 8
  %40 = zext i16 %39 to i32
  %41 = icmp eq i32 %40, 1601
  br i1 %41, label %42, label %57

42:                                               ; preds = %24
  %43 = load ptr, ptr %5, align 8
  %44 = getelementptr inbounds %struct._zend_jit_ctx, ptr %43, i32 0, i32 0
  %45 = getelementptr inbounds %struct._ir_ctx, ptr %44, i32 0, i32 0
  %46 = load ptr, ptr %45, align 8
  %47 = load i32, ptr %8, align 4
  %48 = sext i32 %47 to i64
  %49 = getelementptr inbounds %struct._ir_insn, ptr %46, i64 %48
  %50 = getelementptr inbounds %struct._ir_insn, ptr %49, i32 0, i32 0
  %51 = getelementptr inbounds %struct.anon, ptr %50, i32 0, i32 0
  %52 = getelementptr inbounds %struct.anon.0, ptr %51, i32 0, i32 1
  %53 = load i16, ptr %52, align 2
  %54 = zext i16 %53 to i32
  %55 = load i32, ptr %7, align 4
  %56 = icmp eq i32 %54, %55
  br label %57

57:                                               ; preds = %42, %24
  %58 = phi i1 [ false, %24 ], [ %56, %42 ]
  call void @llvm.assume(i1 %58)
  br label %89

59:                                               ; preds = %3
  %60 = load ptr, ptr %5, align 8
  %61 = getelementptr inbounds %struct._zend_jit_ctx, ptr %60, i32 0, i32 0
  %62 = load i64, ptr %6, align 8
  %63 = call i32 @ir_unique_const_addr(ptr noundef %61, i64 noundef %62)
  store i32 %63, ptr %8, align 4
  %64 = load ptr, ptr %5, align 8
  %65 = getelementptr inbounds %struct._zend_jit_ctx, ptr %64, i32 0, i32 0
  %66 = getelementptr inbounds %struct._ir_ctx, ptr %65, i32 0, i32 0
  %67 = load ptr, ptr %66, align 8
  %68 = load i32, ptr %8, align 4
  %69 = sext i32 %68 to i64
  %70 = getelementptr inbounds %struct._ir_insn, ptr %67, i64 %69
  store ptr %70, ptr %9, align 8
  %71 = load ptr, ptr %9, align 8
  %72 = getelementptr inbounds %struct._ir_insn, ptr %71, i32 0, i32 0
  %73 = getelementptr inbounds %struct.anon, ptr %72, i32 0, i32 0
  store i32 1601, ptr %73, align 8
  %74 = load i32, ptr %7, align 4
  %75 = trunc i32 %74 to i16
  %76 = load ptr, ptr %9, align 8
  %77 = getelementptr inbounds %struct._ir_insn, ptr %76, i32 0, i32 0
  %78 = getelementptr inbounds %struct.anon, ptr %77, i32 0, i32 0
  %79 = getelementptr inbounds %struct.anon.0, ptr %78, i32 0, i32 1
  store i16 %75, ptr %79, align 2
  br label %80

80:                                               ; preds = %59
  %81 = load ptr, ptr %10, align 8
  store ptr %81, ptr %11, align 8
  %82 = load i32, ptr %8, align 4
  %83 = sext i32 %82 to i64
  %84 = load ptr, ptr %11, align 8
  %85 = getelementptr inbounds %struct._zval_struct, ptr %84, i32 0, i32 0
  store i64 %83, ptr %85, align 8
  %86 = load ptr, ptr %11, align 8
  %87 = getelementptr inbounds %struct._zval_struct, ptr %86, i32 0, i32 1
  store i32 4, ptr %87, align 8
  br label %88

88:                                               ; preds = %80
  br label %89

89:                                               ; preds = %88, %57
  %90 = load i32, ptr %8, align 4
  ret i32 %90
}

; Function Attrs: nounwind uwtable
define internal i32 @jit_Z_PTR_ref(ptr noundef %0, i32 noundef %1) #0 {
  %3 = alloca ptr, align 8
  %4 = alloca i32, align 4
  store ptr %0, ptr %3, align 8
  store i32 %1, ptr %4, align 4
  %5 = load ptr, ptr %3, align 8
  %6 = getelementptr inbounds %struct._zend_jit_ctx, ptr %5, i32 0, i32 0
  %7 = load i32, ptr %4, align 4
  %8 = call i32 @_ir_LOAD(ptr noundef %6, i32 noundef 6, i32 noundef %7)
  ret i32 %8
}

; Function Attrs: nounwind uwtable
define internal i32 @jit_CONST_ADDR(ptr noundef %0, i64 noundef %1) #0 {
  %3 = alloca ptr, align 8
  %4 = alloca i32, align 4
  %5 = alloca ptr, align 8
  %6 = alloca i64, align 8
  %7 = alloca i32, align 4
  %8 = alloca ptr, align 8
  %9 = alloca ptr, align 8
  store ptr %0, ptr %5, align 8
  store i64 %1, ptr %6, align 8
  %10 = load i64, ptr %6, align 8
  %11 = icmp eq i64 %10, 0
  br i1 %11, label %12, label %13

12:                                               ; preds = %2
  store i32 -1, ptr %4, align 4
  br label %58

13:                                               ; preds = %2
  %14 = load ptr, ptr %5, align 8
  %15 = getelementptr inbounds %struct._zend_jit_ctx, ptr %14, i32 0, i32 22
  %16 = load i64, ptr %6, align 8
  %17 = call ptr @zend_hash_index_lookup(ptr noundef %15, i64 noundef %16)
  store ptr %17, ptr %8, align 8
  %18 = load ptr, ptr %8, align 8
  store ptr %18, ptr %3, align 8
  %19 = load ptr, ptr %3, align 8
  %20 = getelementptr inbounds %struct._zval_struct, ptr %19, i32 0, i32 1
  %21 = load i8, ptr %20, align 8
  %22 = zext i8 %21 to i32
  %23 = icmp eq i32 %22, 4
  br i1 %23, label %24, label %42

24:                                               ; preds = %13
  %25 = load ptr, ptr %8, align 8
  %26 = getelementptr inbounds %struct._zval_struct, ptr %25, i32 0, i32 0
  %27 = load i64, ptr %26, align 8
  %28 = trunc i64 %27 to i32
  store i32 %28, ptr %7, align 4
  %29 = load ptr, ptr %5, align 8
  %30 = getelementptr inbounds %struct._zend_jit_ctx, ptr %29, i32 0, i32 0
  %31 = getelementptr inbounds %struct._ir_ctx, ptr %30, i32 0, i32 0
  %32 = load ptr, ptr %31, align 8
  %33 = load i32, ptr %7, align 4
  %34 = sext i32 %33 to i64
  %35 = getelementptr inbounds %struct._ir_insn, ptr %32, i64 %34
  %36 = getelementptr inbounds %struct._ir_insn, ptr %35, i32 0, i32 0
  %37 = getelementptr inbounds %struct.anon, ptr %36, i32 0, i32 0
  %38 = getelementptr inbounds %struct.anon.0, ptr %37, i32 0, i32 0
  %39 = load i16, ptr %38, align 8
  %40 = zext i16 %39 to i32
  %41 = icmp eq i32 %40, 1542
  call void @llvm.assume(i1 %41)
  br label %56

42:                                               ; preds = %13
  %43 = load ptr, ptr %5, align 8
  %44 = getelementptr inbounds %struct._zend_jit_ctx, ptr %43, i32 0, i32 0
  %45 = load i64, ptr %6, align 8
  %46 = call i32 @ir_unique_const_addr(ptr noundef %44, i64 noundef %45)
  store i32 %46, ptr %7, align 4
  br label %47

47:                                               ; preds = %42
  %48 = load ptr, ptr %8, align 8
  store ptr %48, ptr %9, align 8
  %49 = load i32, ptr %7, align 4
  %50 = sext i32 %49 to i64
  %51 = load ptr, ptr %9, align 8
  %52 = getelementptr inbounds %struct._zval_struct, ptr %51, i32 0, i32 0
  store i64 %50, ptr %52, align 8
  %53 = load ptr, ptr %9, align 8
  %54 = getelementptr inbounds %struct._zval_struct, ptr %53, i32 0, i32 1
  store i32 4, ptr %54, align 8
  br label %55

55:                                               ; preds = %47
  br label %56

56:                                               ; preds = %55, %24
  %57 = load i32, ptr %7, align 4
  store i32 %57, ptr %4, align 4
  br label %58

58:                                               ; preds = %56, %12
  %59 = load i32, ptr %4, align 4
  ret i32 %59
}

; Function Attrs: nounwind uwtable
define internal void @jit_FREE_OP(ptr noundef %0, i8 noundef zeroext %1, i32 %2, i32 noundef %3, ptr noundef %4) #0 {
  %6 = alloca %union._znode_op, align 4
  %7 = alloca ptr, align 8
  %8 = alloca i8, align 1
  %9 = alloca i32, align 4
  %10 = alloca ptr, align 8
  %11 = getelementptr inbounds %union._znode_op, ptr %6, i32 0, i32 0
  store i32 %2, ptr %11, align 4
  store ptr %0, ptr %7, align 8
  store i8 %1, ptr %8, align 1
  store i32 %3, ptr %9, align 4
  store ptr %4, ptr %10, align 8
  %12 = load i8, ptr %8, align 1
  %13 = zext i8 %12 to i32
  %14 = and i32 %13, 6
  %15 = icmp ne i32 %14, 0
  br i1 %15, label %16, label %25

16:                                               ; preds = %5
  %17 = load ptr, ptr %7, align 8
  %18 = load i32, ptr %6, align 4
  %19 = zext i32 %18 to i64
  %20 = shl i64 %19, 8
  %21 = or i64 %20, 56
  %22 = or i64 %21, 1
  %23 = load i32, ptr %9, align 4
  %24 = load ptr, ptr %10, align 8
  call void @jit_ZVAL_PTR_DTOR(ptr noundef %17, i64 noundef %22, i32 noundef %23, i1 noundef zeroext false, ptr noundef %24)
  br label %25

25:                                               ; preds = %16, %5
  ret void
}

; Function Attrs: nounwind uwtable
define internal void @jit_set_Z_TYPE_INFO(ptr noundef %0, i64 noundef %1, i32 noundef %2) #0 {
  %4 = alloca ptr, align 8
  %5 = alloca i64, align 8
  %6 = alloca i32, align 4
  store ptr %0, ptr %4, align 8
  store i64 %1, ptr %5, align 8
  store i32 %2, ptr %6, align 4
  %7 = load i32, ptr %6, align 4
  %8 = icmp ult i32 %7, 6
  br i1 %8, label %9, label %42

9:                                                ; preds = %3
  %10 = load i64, ptr %5, align 8
  %11 = and i64 %10, 3
  %12 = icmp eq i64 %11, 1
  br i1 %12, label %13, label %42

13:                                               ; preds = %9
  %14 = load i64, ptr %5, align 8
  %15 = lshr i64 %14, 2
  %16 = and i64 %15, 63
  %17 = trunc i64 %16 to i8
  %18 = sext i8 %17 to i32
  %19 = icmp eq i32 %18, 14
  br i1 %19, label %20, label %42

20:                                               ; preds = %13
  %21 = load ptr, ptr getelementptr inbounds (%struct._zend_jit_globals, ptr @jit_globals, i32 0, i32 27), align 8
  %22 = icmp ne ptr %21, null
  br i1 %22, label %23, label %42

23:                                               ; preds = %20
  %24 = load ptr, ptr getelementptr inbounds (%struct._zend_jit_globals, ptr @jit_globals, i32 0, i32 27), align 8
  %25 = getelementptr inbounds %struct._zend_jit_trace_stack_frame, ptr %24, i32 0, i32 10
  %26 = load i64, ptr %5, align 8
  %27 = lshr i64 %26, 8
  %28 = trunc i64 %27 to i32
  %29 = zext i32 %28 to i64
  %30 = udiv i64 %29, 16
  %31 = sub i64 %30, 5
  %32 = trunc i64 %31 to i32
  %33 = zext i32 %32 to i64
  %34 = getelementptr inbounds [1 x %struct._zend_jit_trace_stack], ptr %25, i64 0, i64 %33
  %35 = getelementptr inbounds %struct._zend_jit_trace_stack, ptr %34, i32 0, i32 0
  %36 = getelementptr inbounds %struct.anon.15, ptr %35, i32 0, i32 1
  %37 = load i8, ptr %36, align 1
  %38 = zext i8 %37 to i32
  %39 = load i32, ptr %6, align 4
  %40 = icmp eq i32 %38, %39
  br i1 %40, label %41, label %42

41:                                               ; preds = %23
  br label %49

42:                                               ; preds = %23, %20, %13, %9, %3
  %43 = load ptr, ptr %4, align 8
  %44 = load i64, ptr %5, align 8
  %45 = load ptr, ptr %4, align 8
  %46 = getelementptr inbounds %struct._zend_jit_ctx, ptr %45, i32 0, i32 0
  %47 = load i32, ptr %6, align 4
  %48 = call i32 @ir_const_u32(ptr noundef %46, i32 noundef %47)
  call void @jit_set_Z_TYPE_INFO_ex(ptr noundef %43, i64 noundef %44, i32 noundef %48)
  br label %49

49:                                               ; preds = %42, %41
  ret void
}

; Function Attrs: nounwind uwtable
define internal void @jit_set_Z_PTR(ptr noundef %0, i64 noundef %1, i32 noundef %2) #0 {
  %4 = alloca ptr, align 8
  %5 = alloca i64, align 8
  %6 = alloca i32, align 4
  store ptr %0, ptr %4, align 8
  store i64 %1, ptr %5, align 8
  store i32 %2, ptr %6, align 4
  %7 = load ptr, ptr %4, align 8
  %8 = getelementptr inbounds %struct._zend_jit_ctx, ptr %7, i32 0, i32 0
  %9 = load ptr, ptr %4, align 8
  %10 = load i64, ptr %5, align 8
  %11 = call i32 @jit_ZVAL_ADDR(ptr noundef %9, i64 noundef %10)
  %12 = load i32, ptr %6, align 4
  call void @_ir_STORE(ptr noundef %8, i32 noundef %11, i32 noundef %12)
  ret void
}

; Function Attrs: nounwind uwtable
define internal i32 @jit_CONST_FUNC(ptr noundef %0, i64 noundef %1, i16 noundef zeroext %2) #0 {
  %4 = alloca ptr, align 8
  %5 = alloca i64, align 8
  %6 = alloca i16, align 2
  %7 = alloca i32, align 4
  store ptr %0, ptr %4, align 8
  store i64 %1, ptr %5, align 8
  store i16 %2, ptr %6, align 2
  store i32 0, ptr %7, align 4
  %8 = load ptr, ptr %4, align 8
  %9 = load i64, ptr %5, align 8
  %10 = load i32, ptr %7, align 4
  %11 = call i32 @jit_CONST_FUNC_PROTO(ptr noundef %8, i64 noundef %9, i32 noundef %10)
  ret i32 %11
}

; Function Attrs: nounwind uwtable
define internal i32 @jit_Z_PTR(ptr noundef %0, i64 noundef %1) #0 {
  %3 = alloca i32, align 4
  %4 = alloca ptr, align 8
  %5 = alloca i64, align 8
  store ptr %0, ptr %4, align 8
  store i64 %1, ptr %5, align 8
  %6 = load i64, ptr %5, align 8
  %7 = and i64 %6, 3
  %8 = icmp eq i64 %7, 0
  br i1 %8, label %9, label %17

9:                                                ; preds = %2
  %10 = load ptr, ptr %4, align 8
  %11 = load i64, ptr %5, align 8
  %12 = inttoptr i64 %11 to ptr
  %13 = getelementptr inbounds %struct._zval_struct, ptr %12, i32 0, i32 0
  %14 = load ptr, ptr %13, align 8
  %15 = ptrtoint ptr %14 to i64
  %16 = call i32 @jit_CONST_ADDR(ptr noundef %10, i64 noundef %15)
  store i32 %16, ptr %3, align 4
  br label %23

17:                                               ; preds = %2
  %18 = load ptr, ptr %4, align 8
  %19 = load ptr, ptr %4, align 8
  %20 = load i64, ptr %5, align 8
  %21 = call i32 @jit_ZVAL_ADDR(ptr noundef %19, i64 noundef %20)
  %22 = call i32 @jit_Z_PTR_ref(ptr noundef %18, i32 noundef %21)
  store i32 %22, ptr %3, align 4
  br label %23

23:                                               ; preds = %17, %9
  %24 = load i32, ptr %3, align 4
  ret i32 %24
}

; Function Attrs: nounwind uwtable
define internal i32 @zend_jit_add_arrays(ptr noundef %0, ptr noundef %1, i32 noundef %2, i64 noundef %3, i32 noundef %4, i64 noundef %5, i64 noundef %6) #0 {
  %8 = alloca ptr, align 8
  %9 = alloca ptr, align 8
  %10 = alloca i32, align 4
  %11 = alloca i64, align 8
  %12 = alloca i32, align 4
  %13 = alloca i64, align 8
  %14 = alloca i64, align 8
  %15 = alloca i32, align 4
  %16 = alloca i32, align 4
  %17 = alloca i32, align 4
  store ptr %0, ptr %8, align 8
  store ptr %1, ptr %9, align 8
  store i32 %2, ptr %10, align 4
  store i64 %3, ptr %11, align 8
  store i32 %4, ptr %12, align 4
  store i64 %5, ptr %13, align 8
  store i64 %6, ptr %14, align 8
  %18 = load ptr, ptr %8, align 8
  %19 = load i64, ptr %11, align 8
  %20 = call i32 @jit_Z_PTR(ptr noundef %18, i64 noundef %19)
  store i32 %20, ptr %16, align 4
  %21 = load ptr, ptr %8, align 8
  %22 = load i64, ptr %13, align 8
  %23 = call i32 @jit_Z_PTR(ptr noundef %21, i64 noundef %22)
  store i32 %23, ptr %17, align 4
  %24 = load ptr, ptr %8, align 8
  %25 = getelementptr inbounds %struct._zend_jit_ctx, ptr %24, i32 0, i32 0
  %26 = load ptr, ptr %8, align 8
  %27 = call i32 @jit_CONST_FUNC(ptr noundef %26, i64 noundef ptrtoint (ptr @zend_jit_add_arrays_helper to i64), i16 noundef zeroext 2)
  %28 = load i32, ptr %16, align 4
  %29 = load i32, ptr %17, align 4
  %30 = call i32 @_ir_CALL_2(ptr noundef %25, i32 noundef 6, i32 noundef %27, i32 noundef %28, i32 noundef %29)
  store i32 %30, ptr %15, align 4
  %31 = load ptr, ptr %8, align 8
  %32 = load i64, ptr %14, align 8
  %33 = load i32, ptr %15, align 4
  call void @jit_set_Z_PTR(ptr noundef %31, i64 noundef %32, i32 noundef %33)
  %34 = load ptr, ptr %8, align 8
  %35 = load i64, ptr %14, align 8
  call void @jit_set_Z_TYPE_INFO(ptr noundef %34, i64 noundef %35, i32 noundef 775)
  %36 = load ptr, ptr %8, align 8
  %37 = load ptr, ptr %9, align 8
  %38 = getelementptr inbounds %struct._zend_op, ptr %37, i32 0, i32 7
  %39 = load i8, ptr %38, align 1
  %40 = load ptr, ptr %9, align 8
  %41 = getelementptr inbounds %struct._zend_op, ptr %40, i32 0, i32 1
  %42 = load i32, ptr %10, align 4
  %43 = load ptr, ptr %9, align 8
  %44 = getelementptr inbounds %union._znode_op, ptr %41, i32 0, i32 0
  %45 = load i32, ptr %44, align 8
  call void @jit_FREE_OP(ptr noundef %36, i8 noundef zeroext %39, i32 %45, i32 noundef %42, ptr noundef %43)
  %46 = load ptr, ptr %8, align 8
  %47 = load ptr, ptr %9, align 8
  %48 = getelementptr inbounds %struct._zend_op, ptr %47, i32 0, i32 8
  %49 = load i8, ptr %48, align 2
  %50 = load ptr, ptr %9, align 8
  %51 = getelementptr inbounds %struct._zend_op, ptr %50, i32 0, i32 2
  %52 = load i32, ptr %12, align 4
  %53 = load ptr, ptr %9, align 8
  %54 = getelementptr inbounds %union._znode_op, ptr %51, i32 0, i32 0
  %55 = load i32, ptr %54, align 4
  call void @jit_FREE_OP(ptr noundef %46, i8 noundef zeroext %49, i32 %55, i32 noundef %52, ptr noundef %53)
  ret i32 1
}