; Function Attrs: nounwind uwtable
define internal fastcc void @zend_jit_add_arrays(ptr noundef %0, ptr noundef %1, i32 noundef %2, i64 noundef %3, i32 noundef %4, i64 noundef %5, i64 noundef %6) unnamed_addr #0 {
  %8 = and i64 %3, 3
  %9 = icmp eq i64 %8, 0
  br i1 %9, label %10, label %32

10:                                               ; preds = %7
  %11 = inttoptr i64 %3 to ptr
  %12 = load ptr, ptr %11, align 8
  %13 = ptrtoint ptr %12 to i64
  %14 = icmp eq ptr %12, null
  br i1 %14, label %jit_Z_PTR.exit, label %15

15:                                               ; preds = %10
  %16 = getelementptr inbounds i8, ptr %0, i64 808
  %17 = tail call ptr @zend_hash_index_lookup(ptr noundef nonnull %16, i64 noundef %13) #32
  %18 = getelementptr inbounds i8, ptr %17, i64 8
  %19 = load i8, ptr %18, align 8
  %20 = icmp eq i8 %19, 4
  br i1 %20, label %21, label %29

21:                                               ; preds = %15
  %22 = load i64, ptr %17, align 8
  %23 = trunc i64 %22 to i32
  %24 = load ptr, ptr %0, align 8
  %sext.i.i = shl i64 %22, 32
  %25 = ashr exact i64 %sext.i.i, 32
  %26 = getelementptr inbounds %struct._ir_insn, ptr %24, i64 %25
  %27 = load i16, ptr %26, align 8
  %28 = icmp eq i16 %27, 1542
  tail call void @llvm.assume(i1 %28)
  br label %jit_Z_PTR.exit

29:                                               ; preds = %15
  %30 = tail call i32 @ir_unique_const_addr(ptr noundef %0, i64 noundef %13) #32
  %31 = sext i32 %30 to i64
  store i64 %31, ptr %17, align 8
  store i32 4, ptr %18, align 8
  br label %jit_Z_PTR.exit

32:                                               ; preds = %7
  %33 = tail call fastcc i32 @jit_ZVAL_ADDR(ptr noundef %0, i64 noundef %3)
  %34 = tail call i32 @_ir_LOAD(ptr noundef %0, i32 noundef 6, i32 noundef %33) #32
  br label %jit_Z_PTR.exit

jit_Z_PTR.exit:                                   ; preds = %10, %21, %29, %32
  %.0.i = phi i32 [ %34, %32 ], [ -1, %10 ], [ %23, %21 ], [ %30, %29 ]
  %35 = and i64 %5, 3
  %36 = icmp eq i64 %35, 0
  br i1 %36, label %37, label %59

37:                                               ; preds = %jit_Z_PTR.exit
  %38 = inttoptr i64 %5 to ptr
  %39 = load ptr, ptr %38, align 8
  %40 = ptrtoint ptr %39 to i64
  %41 = icmp eq ptr %39, null
  br i1 %41, label %jit_Z_PTR.exit24, label %42

42:                                               ; preds = %37
  %43 = getelementptr inbounds i8, ptr %0, i64 808
  %44 = tail call ptr @zend_hash_index_lookup(ptr noundef nonnull %43, i64 noundef %40) #32
  %45 = getelementptr inbounds i8, ptr %44, i64 8
  %46 = load i8, ptr %45, align 8
  %47 = icmp eq i8 %46, 4
  br i1 %47, label %48, label %56

48:                                               ; preds = %42
  %49 = load i64, ptr %44, align 8
  %50 = trunc i64 %49 to i32
  %51 = load ptr, ptr %0, align 8
  %sext.i.i23 = shl i64 %49, 32
  %52 = ashr exact i64 %sext.i.i23, 32
  %53 = getelementptr inbounds %struct._ir_insn, ptr %51, i64 %52
  %54 = load i16, ptr %53, align 8
  %55 = icmp eq i16 %54, 1542
  tail call void @llvm.assume(i1 %55)
  br label %jit_Z_PTR.exit24

56:                                               ; preds = %42
  %57 = tail call i32 @ir_unique_const_addr(ptr noundef %0, i64 noundef %40) #32
  %58 = sext i32 %57 to i64
  store i64 %58, ptr %44, align 8
  store i32 4, ptr %45, align 8
  br label %jit_Z_PTR.exit24

59:                                               ; preds = %jit_Z_PTR.exit
  %60 = tail call fastcc i32 @jit_ZVAL_ADDR(ptr noundef %0, i64 noundef %5)
  %61 = tail call i32 @_ir_LOAD(ptr noundef %0, i32 noundef 6, i32 noundef %60) #32
  br label %jit_Z_PTR.exit24

jit_Z_PTR.exit24:                                 ; preds = %37, %48, %56, %59
  %.0.i22 = phi i32 [ %61, %59 ], [ -1, %37 ], [ %50, %48 ], [ %57, %56 ]
  %62 = getelementptr inbounds i8, ptr %0, i64 808
  %63 = tail call ptr @zend_hash_index_lookup(ptr noundef nonnull %62, i64 noundef ptrtoint (ptr @zend_jit_add_arrays_helper to i64)) #32
  %64 = getelementptr inbounds i8, ptr %63, i64 8
  %65 = load i8, ptr %64, align 8
  %66 = icmp eq i8 %65, 4
  br i1 %66, label %67, label %81

67:                                               ; preds = %jit_Z_PTR.exit24
  %68 = load i64, ptr %63, align 8
  %69 = trunc i64 %68 to i32
  %70 = load ptr, ptr %0, align 8
  %sext.i.i25 = shl i64 %68, 32
  %71 = ashr exact i64 %sext.i.i25, 32
  %72 = getelementptr inbounds %struct._ir_insn, ptr %70, i64 %71
  %73 = load i16, ptr %72, align 8
  %74 = icmp eq i16 %73, 1601
  br i1 %74, label %75, label %79

75:                                               ; preds = %67
  %76 = getelementptr inbounds i8, ptr %72, i64 2
  %77 = load i16, ptr %76, align 2
  %78 = icmp eq i16 %77, 0
  br label %79

79:                                               ; preds = %75, %67
  %80 = phi i1 [ false, %67 ], [ %78, %75 ]
  tail call void @llvm.assume(i1 %80)
  br label %jit_CONST_FUNC.exit

81:                                               ; preds = %jit_Z_PTR.exit24
  %82 = tail call i32 @ir_unique_const_addr(ptr noundef %0, i64 noundef ptrtoint (ptr @zend_jit_add_arrays_helper to i64)) #32
  %83 = load ptr, ptr %0, align 8
  %84 = sext i32 %82 to i64
  %85 = getelementptr inbounds %struct._ir_insn, ptr %83, i64 %84
  store i32 1601, ptr %85, align 8
  store i64 %84, ptr %63, align 8
  store i32 4, ptr %64, align 8
  br label %jit_CONST_FUNC.exit

jit_CONST_FUNC.exit:                              ; preds = %79, %81
  %.0.i.i = phi i32 [ %69, %79 ], [ %82, %81 ]
  %86 = tail call i32 @_ir_CALL_2(ptr noundef nonnull %0, i32 noundef 6, i32 noundef %.0.i.i, i32 noundef %.0.i, i32 noundef %.0.i22) #32
  %87 = tail call fastcc i32 @jit_ZVAL_ADDR(ptr noundef nonnull %0, i64 noundef %6)
  tail call void @_ir_STORE(ptr noundef nonnull %0, i32 noundef %87, i32 noundef %86) #32
  %88 = tail call i32 @ir_const_u32(ptr noundef nonnull %0, i32 noundef 775) #32
  tail call fastcc void @jit_set_Z_TYPE_INFO_ex(ptr noundef nonnull %0, i64 noundef %6, i32 noundef %88)
  %89 = getelementptr inbounds i8, ptr %1, i64 29
  %90 = load i8, ptr %89, align 1
  %91 = and i8 %90, 6
  %.not.i = icmp eq i8 %91, 0
  br i1 %.not.i, label %jit_FREE_OP.exit, label %92

92:                                               ; preds = %jit_CONST_FUNC.exit
  %93 = getelementptr inbounds i8, ptr %1, i64 8
  %94 = load i32, ptr %93, align 8
  %95 = zext i32 %94 to i64
  %96 = shl nuw nsw i64 %95, 8
  %97 = or disjoint i64 %96, 57
  tail call fastcc void @jit_ZVAL_PTR_DTOR(ptr noundef nonnull %0, i64 noundef %97, i32 noundef %2, i1 noundef zeroext false, ptr noundef nonnull %1)
  br label %jit_FREE_OP.exit

jit_FREE_OP.exit:                                 ; preds = %jit_CONST_FUNC.exit, %92
  %98 = getelementptr inbounds i8, ptr %1, i64 30
  %99 = load i8, ptr %98, align 2
  %100 = and i8 %99, 6
  %.not.i26 = icmp eq i8 %100, 0
  br i1 %.not.i26, label %jit_FREE_OP.exit27, label %101

101:                                              ; preds = %jit_FREE_OP.exit
  %102 = getelementptr inbounds i8, ptr %1, i64 12
  %103 = load i32, ptr %102, align 4
  %104 = zext i32 %103 to i64
  %105 = shl nuw nsw i64 %104, 8
  %106 = or disjoint i64 %105, 57
  tail call fastcc void @jit_ZVAL_PTR_DTOR(ptr noundef nonnull %0, i64 noundef %106, i32 noundef %4, i1 noundef zeroext false, ptr noundef nonnull %1)
  br label %jit_FREE_OP.exit27

jit_FREE_OP.exit27:                               ; preds = %jit_FREE_OP.exit, %101
  ret void
}